; Function Attrs: nounwind uwtable
define dso_local void @pauseActions(i32 noundef %0, i64 noundef %1, i32 noundef %2) local_unnamed_addr #0 {
  %4 = zext i32 %0 to i64
  %5 = getelementptr inbounds nuw [3 x %struct.pause_event], ptr getelementptr inbounds nuw (i8, ptr @server, i64 1544), i64 0, i64 %4
  store i32 %2, ptr %5, align 8, !tbaa !246
  %6 = getelementptr inbounds nuw i8, ptr %5, i64 8
  %7 = load i64, ptr %6, align 8, !tbaa !244
  %8 = icmp slt i64 %7, %1
  br i1 %8, label %9, label %10

9:                                                ; preds = %3
  store i64 %1, ptr %6, align 8, !tbaa !244
  br label %10

10:                                               ; preds = %9, %3
  tail call void @updatePausedActions()
  %11 = load i32, ptr getelementptr inbounds nuw (i8, ptr @server, i64 220), align 4, !tbaa !254
  %.not = icmp eq i32 %11, 0
  br i1 %.not, label %13, label %12

12:                                               ; preds = %10
  store i32 1, ptr getelementptr inbounds nuw (i8, ptr @server, i64 248), align 8, !tbaa !255
  br label %13

13:                                               ; preds = %12, %10
  ret void
}